; Function Attrs: mustprogress nounwind uwtable
define hidden void @_ZN19JfrPeriodicEventSet15requestLongFlagEv() local_unnamed_addr #2 align 2 {
  %1 = alloca %class.EventLongFlag, align 8
  %2 = load ptr, ptr @_ZN7JVMFlag5flagsE, align 8
  %3 = getelementptr inbounds i8, ptr %2, i64 8
  %4 = load ptr, ptr %3, align 8
  %.not7 = icmp eq ptr %4, null
  br i1 %.not7, label %._crit_edge, label %.lr.ph

.lr.ph:                                           ; preds = %0
  %5 = getelementptr inbounds i8, ptr %1, i64 24
  %6 = getelementptr inbounds i8, ptr %1, i64 32
  %7 = getelementptr inbounds i8, ptr %1, i64 40
  br label %8

8:                                                ; preds = %.lr.ph, %27
  %9 = phi ptr [ %3, %.lr.ph ], [ %29, %27 ]
  %.08 = phi ptr [ %2, %.lr.ph ], [ %28, %27 ]
  %10 = getelementptr inbounds i8, ptr %.08, i64 20
  %11 = load i32, ptr %10, align 4
  %12 = icmp eq i32 %11, 3
  br i1 %12, label %13, label %27

13:                                               ; preds = %8
  %14 = call noundef zeroext i1 @_ZNK7JVMFlag11is_unlockedEv(ptr noundef nonnull align 8 dereferenceable(24) %.08) #13
  br i1 %14, label %15, label %27

15:                                               ; preds = %13
  call void @llvm.memset.p0.i64(ptr noundef nonnull align 8 dereferenceable(19) %1, i8 0, i64 19, i1 false)
  %16 = load i8, ptr getelementptr inbounds (i8, ptr @_ZN15JfrEventSetting19_jvm_event_settingsE, i64 3185), align 1
  %17 = icmp eq i8 %16, 0
  br i1 %17, label %_ZN13EventLongFlagC2E14EventStartTime.exit, label %18

18:                                               ; preds = %15
  %19 = call noundef i64 @_ZN33FastUnorderedElapsedCounterSource3nowEv() #13
  store i64 %19, ptr %1, align 8
  br label %_ZN13EventLongFlagC2E14EventStartTime.exit

_ZN13EventLongFlagC2E14EventStartTime.exit:       ; preds = %15, %18
  %20 = load ptr, ptr %9, align 8
  store ptr %20, ptr %5, align 8
  %21 = load ptr, ptr %.08, align 8
  %22 = load i64, ptr %21, align 8
  store i64 %22, ptr %6, align 8
  %23 = getelementptr inbounds i8, ptr %.08, i64 16
  %24 = load i32, ptr %23, align 8
  %25 = and i32 %24, 15
  %26 = zext nneg i32 %25 to i64
  store i64 %26, ptr %7, align 8
  call void @_ZN8JfrEventI13EventLongFlagE6commitEv(ptr noundef nonnull align 8 dereferenceable(19) %1)
  br label %27

27:                                               ; preds = %13, %_ZN13EventLongFlagC2E14EventStartTime.exit, %8
  %28 = getelementptr inbounds i8, ptr %.08, i64 24
  %29 = getelementptr inbounds i8, ptr %.08, i64 32
  %30 = load ptr, ptr %29, align 8
  %.not = icmp eq ptr %30, null
  br i1 %.not, label %._crit_edge, label %8, !llvm.loop !13

._crit_edge:                                      ; preds = %27, %0
  ret void
}